target datalayout = "e-m:e-p270:32:32-p271:32:32-p272:64:64-i64:64-i128:128-f80:128-n8:16:32:64-S128"
target triple = "x86_64-pc-linux-gnu"

%struct.slurm_step_id_msg = type { i64, i32, i32, i32 }
%struct.srun_job = type { %struct.slurm_step_id_msg, i32, i32, ptr, i32, i32, i32, i32, ptr, ptr, ptr, ptr, i32, i32, i32, i16, i16, i16, i16, i32, %union.pthread_mutex_t, %union.pthread_cond_t, i32, ptr, ptr, ptr, ptr, ptr, ptr, i32, i16, i16, i16, ptr, ptr, ptr, ptr, i32, ptr, i32, ptr }
%union.pthread_mutex_t = type { %struct.__pthread_mutex_s }
%struct.__pthread_mutex_s = type { i32, i32, i32, i32, i32, i16, i16, %struct.__pthread_internal_list }
%struct.__pthread_internal_list = type { ptr, ptr }
%union.pthread_cond_t = type { %struct.__pthread_cond_s }
%struct.__pthread_cond_s = type { %union.__atomic_wide_counter, %union.__atomic_wide_counter, [2 x i32], [2 x i32], i32, i32, [2 x i32] }
%union.__atomic_wide_counter = type { i64 }

@.str = private unnamed_addr constant [11 x i8] c"srun_job.c\00", align 1
@.str.40 = private unnamed_addr constant [29 x i8] c"%s: pthread_mutex_lock(): %m\00", align 1
@__func__.update_job_state = private unnamed_addr constant [17 x i8] c"update_job_state\00", align 1
@.str.41 = private unnamed_addr constant [36 x i8] c"%s:%d %s: pthread_cond_signal(): %m\00", align 1
@.str.42 = private unnamed_addr constant [31 x i8] c"%s: pthread_mutex_unlock(): %m\00", align 1

; Function Attrs: nounwind uwtable
define dso_local void @update_job_state(ptr noundef %0, i32 noundef %1) #0 {
  %3 = alloca ptr, align 8
  %4 = alloca i32, align 4
  %5 = alloca i32, align 4
  %6 = alloca i32, align 4
  %7 = alloca i32, align 4
  store ptr %0, ptr %3, align 8
  store i32 %1, ptr %4, align 4
  br label %8

8:                                                ; preds = %2
  call void @llvm.lifetime.start.p0(i64 4, ptr %5) #10
  %9 = load ptr, ptr %3, align 8
  %10 = getelementptr inbounds nuw %struct.srun_job, ptr %9, i32 0, i32 20
  %11 = call i32 @pthread_mutex_lock(ptr noundef %10) #10
  store i32 %11, ptr %5, align 4
  %12 = load i32, ptr %5, align 4
  %13 = icmp ne i32 %12, 0
  br i1 %13, label %14, label %17

14:                                               ; preds = %8
  %15 = load i32, ptr %5, align 4
  %16 = call ptr @__errno_location() #11
  store i32 %15, ptr %16, align 4
  call void (ptr, ...) @fatal_abort(ptr noundef @.str.40, ptr noundef @__func__.update_job_state) #12
  unreachable

17:                                               ; preds = %8
  call void @llvm.lifetime.end.p0(i64 4, ptr %5) #10
  br label %18

18:                                               ; preds = %17
  %19 = load ptr, ptr %3, align 8
  %20 = getelementptr inbounds nuw %struct.srun_job, ptr %19, i32 0, i32 19
  %21 = load i32, ptr %20, align 4
  %22 = load i32, ptr %4, align 4
  %23 = icmp ult i32 %21, %22
  br i1 %23, label %24, label %40

24:                                               ; preds = %18
  %25 = load i32, ptr %4, align 4
  %26 = load ptr, ptr %3, align 8
  %27 = getelementptr inbounds nuw %struct.srun_job, ptr %26, i32 0, i32 19
  store i32 %25, ptr %27, align 4
  br label %28

28:                                               ; preds = %24
  call void @llvm.lifetime.start.p0(i64 4, ptr %6) #10
  %29 = load ptr, ptr %3, align 8
  %30 = getelementptr inbounds nuw %struct.srun_job, ptr %29, i32 0, i32 21
  %31 = call i32 @pthread_cond_signal(ptr noundef %30) #10
  store i32 %31, ptr %6, align 4
  %32 = load i32, ptr %6, align 4
  %33 = icmp ne i32 %32, 0
  br i1 %33, label %34, label %38

34:                                               ; preds = %28
  %35 = load i32, ptr %6, align 4
  %36 = call ptr @__errno_location() #11
  store i32 %35, ptr %36, align 4
  %37 = call i32 (ptr, ...) @error(ptr noundef @.str.41, ptr noundef @.str, i32 noundef 1585, ptr noundef @__func__.update_job_state)
  br label %38

38:                                               ; preds = %34, %28
  call void @llvm.lifetime.end.p0(i64 4, ptr %6) #10
  br label %39

39:                                               ; preds = %38
  br label %40

40:                                               ; preds = %39, %18
  br label %41

41:                                               ; preds = %40
  call void @llvm.lifetime.start.p0(i64 4, ptr %7) #10
  %42 = load ptr, ptr %3, align 8
  %43 = getelementptr inbounds nuw %struct.srun_job, ptr %42, i32 0, i32 20
  %44 = call i32 @pthread_mutex_unlock(ptr noundef %43) #10
  store i32 %44, ptr %7, align 4
  %45 = load i32, ptr %7, align 4
  %46 = icmp ne i32 %45, 0
  br i1 %46, label %47, label %50

47:                                               ; preds = %41
  %48 = load i32, ptr %7, align 4
  %49 = call ptr @__errno_location() #11
  store i32 %48, ptr %49, align 4
  call void (ptr, ...) @fatal_abort(ptr noundef @.str.42, ptr noundef @__func__.update_job_state) #12
  unreachable

50:                                               ; preds = %41
  call void @llvm.lifetime.end.p0(i64 4, ptr %7) #10
  br label %51

51:                                               ; preds = %50
  ret void
}