; Function Attrs: nounwind uwtable
define dso_local void @update_job_state(ptr noundef %0, i32 noundef %1) local_unnamed_addr #0 {
  %3 = getelementptr inbounds nuw i8, ptr %0, i64 112
  %4 = tail call i32 @pthread_mutex_lock(ptr noundef nonnull %3) #15
  %.not = icmp eq i32 %4, 0
  br i1 %.not, label %7, label %5

5:                                                ; preds = %2
  %6 = tail call ptr @__errno_location() #16
  store i32 %4, ptr %6, align 4
  tail call void (ptr, ...) @fatal_abort(ptr noundef nonnull @.str.40, ptr noundef nonnull @__func__.update_job_state) #17
  unreachable

7:                                                ; preds = %2
  %8 = getelementptr inbounds nuw i8, ptr %0, i64 108
  %9 = load i32, ptr %8, align 4
  %10 = icmp ult i32 %9, %1
  br i1 %10, label %11, label %17

11:                                               ; preds = %7
  store i32 %1, ptr %8, align 4
  %12 = getelementptr inbounds nuw i8, ptr %0, i64 152
  %13 = tail call i32 @pthread_cond_signal(ptr noundef nonnull %12) #15
  %.not15 = icmp eq i32 %13, 0
  br i1 %.not15, label %17, label %14

14:                                               ; preds = %11
  %15 = tail call ptr @__errno_location() #16
  store i32 %13, ptr %15, align 4
  %16 = tail call i32 (ptr, ...) @error(ptr noundef nonnull @.str.41, ptr noundef nonnull @.str, i32 noundef 1585, ptr noundef nonnull @__func__.update_job_state) #15
  br label %17

17:                                               ; preds = %11, %14, %7
  %18 = tail call i32 @pthread_mutex_unlock(ptr noundef nonnull %3) #15
  %.not16 = icmp eq i32 %18, 0
  br i1 %.not16, label %21, label %19

19:                                               ; preds = %17
  %20 = tail call ptr @__errno_location() #16
  store i32 %18, ptr %20, align 4
  tail call void (ptr, ...) @fatal_abort(ptr noundef nonnull @.str.42, ptr noundef nonnull @__func__.update_job_state) #17
  unreachable

21:                                               ; preds = %17
  ret void
}